
thuemorse64:     file format elf64-littleriscv


Disassembly of section .text.init:

0000000080000000 <_start>:
    80000000:	00000093          	li	ra,0
    80000004:	00000113          	li	sp,0
    80000008:	00000193          	li	gp,0
    8000000c:	00000213          	li	tp,0
    80000010:	00000293          	li	t0,0
    80000014:	00000313          	li	t1,0
    80000018:	00000393          	li	t2,0
    8000001c:	00000413          	li	s0,0
    80000020:	00000493          	li	s1,0
    80000024:	00000513          	li	a0,0
    80000028:	00000593          	li	a1,0
    8000002c:	00000613          	li	a2,0
    80000030:	00000693          	li	a3,0
    80000034:	00000713          	li	a4,0
    80000038:	00000793          	li	a5,0
    8000003c:	00000813          	li	a6,0
    80000040:	00000893          	li	a7,0
    80000044:	00000913          	li	s2,0
    80000048:	00000993          	li	s3,0
    8000004c:	00000a13          	li	s4,0
    80000050:	00000a93          	li	s5,0
    80000054:	00000b13          	li	s6,0
    80000058:	00000b93          	li	s7,0
    8000005c:	00000c13          	li	s8,0
    80000060:	00000c93          	li	s9,0
    80000064:	00000d13          	li	s10,0
    80000068:	00000d93          	li	s11,0
    8000006c:	00000e13          	li	t3,0
    80000070:	00000e93          	li	t4,0
    80000074:	00000f13          	li	t5,0
    80000078:	00000f93          	li	t6,0
    8000007c:	00010137          	lui	sp,0x10
    80000080:	ff01011b          	addiw	sp,sp,-16
    80000084:	090010ef          	jal	ra,80001114 <main>
    80000088:	0000006f          	j	80000088 <_start+0x88>

Disassembly of section .text:

0000000080001000 <compter_uns>:
    80001000:	fd010113          	addi	sp,sp,-48 # ffd0 <_start-0x7fff0030>
    80001004:	02813423          	sd	s0,40(sp)
    80001008:	03010413          	addi	s0,sp,48
    8000100c:	00050793          	mv	a5,a0
    80001010:	fcf42e23          	sw	a5,-36(s0)
    80001014:	fe042623          	sw	zero,-20(s0)
    80001018:	05c0006f          	j	80001074 <compter_uns+0x74>
    8000101c:	fdc42703          	lw	a4,-36(s0)
    80001020:	41f7579b          	sraiw	a5,a4,0x1f
    80001024:	01f7d79b          	srliw	a5,a5,0x1f
    80001028:	00f7073b          	addw	a4,a4,a5
    8000102c:	00177713          	andi	a4,a4,1
    80001030:	40f707bb          	subw	a5,a4,a5
    80001034:	0007879b          	sext.w	a5,a5
    80001038:	fec42703          	lw	a4,-20(s0)
    8000103c:	00f707bb          	addw	a5,a4,a5
    80001040:	0007879b          	sext.w	a5,a5
    80001044:	00078713          	mv	a4,a5
    80001048:	41f7579b          	sraiw	a5,a4,0x1f
    8000104c:	01f7d79b          	srliw	a5,a5,0x1f
    80001050:	00f7073b          	addw	a4,a4,a5
    80001054:	00177713          	andi	a4,a4,1
    80001058:	40f707bb          	subw	a5,a4,a5
    8000105c:	fef42623          	sw	a5,-20(s0)
    80001060:	fdc42783          	lw	a5,-36(s0)
    80001064:	01f7d71b          	srliw	a4,a5,0x1f
    80001068:	00f707bb          	addw	a5,a4,a5
    8000106c:	4017d79b          	sraiw	a5,a5,0x1
    80001070:	fcf42e23          	sw	a5,-36(s0)
    80001074:	fdc42783          	lw	a5,-36(s0)
    80001078:	0007879b          	sext.w	a5,a5
    8000107c:	fa0790e3          	bnez	a5,8000101c <compter_uns+0x1c>
    80001080:	fec42783          	lw	a5,-20(s0)
    80001084:	00078513          	mv	a0,a5
    80001088:	02813403          	ld	s0,40(sp)
    8000108c:	03010113          	addi	sp,sp,48
    80001090:	00008067          	ret

0000000080001094 <thuemorse>:
    80001094:	fd010113          	addi	sp,sp,-48
    80001098:	02113423          	sd	ra,40(sp)
    8000109c:	02813023          	sd	s0,32(sp)
    800010a0:	03010413          	addi	s0,sp,48
    800010a4:	00050793          	mv	a5,a0
    800010a8:	fcf42e23          	sw	a5,-36(s0)
    800010ac:	fe042623          	sw	zero,-20(s0)
    800010b0:	0340006f          	j	800010e4 <thuemorse+0x50>
    800010b4:	fec42783          	lw	a5,-20(s0)
    800010b8:	00078513          	mv	a0,a5
    800010bc:	00000097          	auipc	ra,0x0
    800010c0:	f44080e7          	jalr	-188(ra) # 80001000 <compter_uns>
    800010c4:	00050793          	mv	a5,a0
    800010c8:	0307879b          	addiw	a5,a5,48
    800010cc:	0007879b          	sext.w	a5,a5
    800010d0:	00078513          	mv	a0,a5
    800010d4:	0a4000ef          	jal	ra,80001178 <putchar>
    800010d8:	fec42783          	lw	a5,-20(s0)
    800010dc:	0017879b          	addiw	a5,a5,1
    800010e0:	fef42623          	sw	a5,-20(s0)
    800010e4:	fec42703          	lw	a4,-20(s0)
    800010e8:	fdc42783          	lw	a5,-36(s0)
    800010ec:	0007071b          	sext.w	a4,a4
    800010f0:	0007879b          	sext.w	a5,a5
    800010f4:	fcf740e3          	blt	a4,a5,800010b4 <thuemorse+0x20>
    800010f8:	00a00513          	li	a0,10
    800010fc:	07c000ef          	jal	ra,80001178 <putchar>
    80001100:	00000013          	nop
    80001104:	02813083          	ld	ra,40(sp)
    80001108:	02013403          	ld	s0,32(sp)
    8000110c:	03010113          	addi	sp,sp,48
    80001110:	00008067          	ret

0000000080001114 <main>:
    80001114:	ff010113          	addi	sp,sp,-16
    80001118:	00113423          	sd	ra,8(sp)
    8000111c:	00813023          	sd	s0,0(sp)
    80001120:	01010413          	addi	s0,sp,16
    80001124:	08000513          	li	a0,128
    80001128:	00000097          	auipc	ra,0x0
    8000112c:	f6c080e7          	jalr	-148(ra) # 80001094 <thuemorse>
    80001130:	00000793          	li	a5,0
    80001134:	00078513          	mv	a0,a5
    80001138:	00813083          	ld	ra,8(sp)
    8000113c:	00013403          	ld	s0,0(sp)
    80001140:	01010113          	addi	sp,sp,16
    80001144:	00008067          	ret
    80001148:	0000                	unimp
	...

000000008000114c <getchar>:
    8000114c:	ff010113          	addi	sp,sp,-16
    80001150:	00813423          	sd	s0,8(sp)
    80001154:	01010413          	addi	s0,sp,16
    80001158:	00001797          	auipc	a5,0x1
    8000115c:	ea878793          	addi	a5,a5,-344 # 80002000 <CHAR_ADDR>
    80001160:	0007b783          	ld	a5,0(a5)
    80001164:	0007a783          	lw	a5,0(a5)
    80001168:	00078513          	mv	a0,a5
    8000116c:	00813403          	ld	s0,8(sp)
    80001170:	01010113          	addi	sp,sp,16
    80001174:	00008067          	ret

0000000080001178 <putchar>:
    80001178:	fe010113          	addi	sp,sp,-32
    8000117c:	00813c23          	sd	s0,24(sp)
    80001180:	02010413          	addi	s0,sp,32
    80001184:	00050793          	mv	a5,a0
    80001188:	fef42623          	sw	a5,-20(s0)
    8000118c:	00001797          	auipc	a5,0x1
    80001190:	e7478793          	addi	a5,a5,-396 # 80002000 <CHAR_ADDR>
    80001194:	0007b783          	ld	a5,0(a5)
    80001198:	fec42703          	lw	a4,-20(s0)
    8000119c:	00e7a023          	sw	a4,0(a5)
    800011a0:	fec42783          	lw	a5,-20(s0)
    800011a4:	00078513          	mv	a0,a5
    800011a8:	01813403          	ld	s0,24(sp)
    800011ac:	02010113          	addi	sp,sp,32
    800011b0:	00008067          	ret
	...
