
hello64:     file format elf64-littleriscv


Disassembly of section .text.init:

0000000080000000 <_start>:
    80000000:	00000093          	li	ra,0
    80000004:	00000113          	li	sp,0
    80000008:	00000193          	li	gp,0
    8000000c:	00000213          	li	tp,0
    80000010:	00000293          	li	t0,0
    80000014:	00000313          	li	t1,0
    80000018:	00000393          	li	t2,0
    8000001c:	00000413          	li	s0,0
    80000020:	00000493          	li	s1,0
    80000024:	00000513          	li	a0,0
    80000028:	00000593          	li	a1,0
    8000002c:	00000613          	li	a2,0
    80000030:	00000693          	li	a3,0
    80000034:	00000713          	li	a4,0
    80000038:	00000793          	li	a5,0
    8000003c:	00000813          	li	a6,0
    80000040:	00000893          	li	a7,0
    80000044:	00000913          	li	s2,0
    80000048:	00000993          	li	s3,0
    8000004c:	00000a13          	li	s4,0
    80000050:	00000a93          	li	s5,0
    80000054:	00000b13          	li	s6,0
    80000058:	00000b93          	li	s7,0
    8000005c:	00000c13          	li	s8,0
    80000060:	00000c93          	li	s9,0
    80000064:	00000d13          	li	s10,0
    80000068:	00000d93          	li	s11,0
    8000006c:	00000e13          	li	t3,0
    80000070:	00000e93          	li	t4,0
    80000074:	00000f13          	li	t5,0
    80000078:	00000f93          	li	t6,0
    8000007c:	00010137          	lui	sp,0x10
    80000080:	ff01011b          	addiw	sp,sp,-16
    80000084:	77d000ef          	jal	ra,80001000 <main>
    80000088:	0000006f          	j	80000088 <_start+0x88>

Disassembly of section .text:

0000000080001000 <main>:
    80001000:	fe010113          	addi	sp,sp,-32 # ffe0 <_start-0x7fff0020>
    80001004:	00113c23          	sd	ra,24(sp)
    80001008:	00813823          	sd	s0,16(sp)
    8000100c:	02010413          	addi	s0,sp,32
    80001010:	00000797          	auipc	a5,0x0
    80001014:	0d878793          	addi	a5,a5,216 # 800010e8 <putchar+0x44>
    80001018:	fef43023          	sd	a5,-32(s0)
    8000101c:	fe043783          	ld	a5,-32(s0)
    80001020:	fef43423          	sd	a5,-24(s0)
    80001024:	0280006f          	j	8000104c <main+0x4c>
    80001028:	fe843783          	ld	a5,-24(s0)
    8000102c:	0007c783          	lbu	a5,0(a5)
    80001030:	0007879b          	sext.w	a5,a5
    80001034:	00078513          	mv	a0,a5
    80001038:	00000097          	auipc	ra,0x0
    8000103c:	06c080e7          	jalr	108(ra) # 800010a4 <putchar>
    80001040:	fe843783          	ld	a5,-24(s0)
    80001044:	00178793          	addi	a5,a5,1
    80001048:	fef43423          	sd	a5,-24(s0)
    8000104c:	fe043783          	ld	a5,-32(s0)
    80001050:	00e78793          	addi	a5,a5,14
    80001054:	fe843703          	ld	a4,-24(s0)
    80001058:	fcf768e3          	bltu	a4,a5,80001028 <main+0x28>
    8000105c:	00000793          	li	a5,0
    80001060:	00078513          	mv	a0,a5
    80001064:	01813083          	ld	ra,24(sp)
    80001068:	01013403          	ld	s0,16(sp)
    8000106c:	02010113          	addi	sp,sp,32
    80001070:	00008067          	ret
    80001074:	0000                	unimp
	...

0000000080001078 <getchar>:
    80001078:	ff010113          	addi	sp,sp,-16
    8000107c:	00813423          	sd	s0,8(sp)
    80001080:	01010413          	addi	s0,sp,16
    80001084:	00001797          	auipc	a5,0x1
    80001088:	f7c78793          	addi	a5,a5,-132 # 80002000 <CHAR_ADDR>
    8000108c:	0007b783          	ld	a5,0(a5)
    80001090:	0007a783          	lw	a5,0(a5)
    80001094:	00078513          	mv	a0,a5
    80001098:	00813403          	ld	s0,8(sp)
    8000109c:	01010113          	addi	sp,sp,16
    800010a0:	00008067          	ret

00000000800010a4 <putchar>:
    800010a4:	fe010113          	addi	sp,sp,-32
    800010a8:	00813c23          	sd	s0,24(sp)
    800010ac:	02010413          	addi	s0,sp,32
    800010b0:	00050793          	mv	a5,a0
    800010b4:	fef42623          	sw	a5,-20(s0)
    800010b8:	00001797          	auipc	a5,0x1
    800010bc:	f4878793          	addi	a5,a5,-184 # 80002000 <CHAR_ADDR>
    800010c0:	0007b783          	ld	a5,0(a5)
    800010c4:	fec42703          	lw	a4,-20(s0)
    800010c8:	00e7a023          	sw	a4,0(a5)
    800010cc:	fec42783          	lw	a5,-20(s0)
    800010d0:	00078513          	mv	a0,a5
    800010d4:	01813403          	ld	s0,24(sp)
    800010d8:	02010113          	addi	sp,sp,32
    800010dc:	00008067          	ret
	...
